; Function Attrs: nounwind uwtable
define void @Gia_DeriveAigTest() local_unnamed_addr #0 {
  %1 = alloca [100 x i8], align 16
  %2 = alloca ptr, align 8
  %3 = alloca ptr, align 8
  %4 = alloca i32, align 4
  call void @llvm.lifetime.start.p0(i64 100, ptr nonnull %1) #21
  call void @llvm.memset.p0.i64(ptr noundef nonnull align 16 dereferenceable(100) %1, i8 0, i64 100, i1 false)
  store i8 116, ptr %1, align 16
  %5 = getelementptr inbounds nuw i8, ptr %1, i64 1
  store i8 101, ptr %5, align 1
  %6 = getelementptr inbounds nuw i8, ptr %1, i64 2
  store i8 115, ptr %6, align 2
  %7 = getelementptr inbounds nuw i8, ptr %1, i64 3
  store i8 116, ptr %7, align 1
  call void @llvm.lifetime.start.p0(i64 8, ptr nonnull %2) #21
  call void @llvm.lifetime.start.p0(i64 8, ptr nonnull %3) #21
  call void @llvm.lifetime.start.p0(i64 4, ptr nonnull %4) #21
  %8 = call i32 @Gia_ManReadCifar10File(ptr noundef nonnull %1, ptr noundef nonnull %2, ptr noundef nonnull %3, ptr noundef nonnull %4)
  %9 = load ptr, ptr %2, align 8, !tbaa !47
  %10 = load ptr, ptr %3, align 8, !tbaa !48
  %11 = call ptr @Gia_DeriveAig(ptr noundef %9, ptr noundef %10)
  call void @Gia_AigerWrite(ptr noundef %11, ptr noundef nonnull @.str, i32 noundef 0, i32 noundef 0, i32 noundef 0) #21
  %12 = call i32 (ptr, ...) @printf(ptr noundef nonnull dereferenceable(1) @.str.1, ptr noundef nonnull @.str)
  call void @Gia_ManStop(ptr noundef %11) #21
  %13 = getelementptr inbounds nuw i8, ptr %9, i64 8
  %14 = load ptr, ptr %13, align 8, !tbaa !13
  %.not.i = icmp eq ptr %14, null
  br i1 %.not.i, label %Vec_WrdFree.exit, label %15

15:                                               ; preds = %0
  call void @free(ptr noundef nonnull %14) #21
  br label %Vec_WrdFree.exit

Vec_WrdFree.exit:                                 ; preds = %0, %15
  call void @free(ptr noundef nonnull %9) #21
  %16 = getelementptr inbounds nuw i8, ptr %10, i64 8
  %17 = load ptr, ptr %16, align 8, !tbaa !5
  %.not.i2 = icmp eq ptr %17, null
  br i1 %.not.i2, label %Vec_StrFree.exit, label %18

18:                                               ; preds = %Vec_WrdFree.exit
  call void @free(ptr noundef nonnull %17) #21
  br label %Vec_StrFree.exit

Vec_StrFree.exit:                                 ; preds = %Vec_WrdFree.exit, %18
  call void @free(ptr noundef nonnull %10) #21
  call void @llvm.lifetime.end.p0(i64 4, ptr nonnull %4) #21
  call void @llvm.lifetime.end.p0(i64 8, ptr nonnull %3) #21
  call void @llvm.lifetime.end.p0(i64 8, ptr nonnull %2) #21
  call void @llvm.lifetime.end.p0(i64 100, ptr nonnull %1) #21
  ret void
}